target datalayout = "e-m:e-p270:32:32-p271:32:32-p272:64:64-i64:64-i128:128-f80:128-n8:16:32:64-S128"
target triple = "x86_64-pc-linux-gnu"

%struct.UCMapping = type { i32, %union.anon, i8, i8, i8, i8 }
%union.anon = type { i32 }

; Function Attrs: mustprogress uwtable
define signext i8 @ucm_addMappingFromLine(ptr noundef %0, ptr noundef %1, i8 noundef signext %2, ptr noundef %3) #0 {
  %5 = alloca i8, align 1
  %6 = alloca ptr, align 8
  %7 = alloca ptr, align 8
  %8 = alloca i8, align 1
  %9 = alloca ptr, align 8
  %10 = alloca %struct.UCMapping, align 4
  %11 = alloca [19 x i32], align 16
  %12 = alloca [31 x i8], align 16
  %13 = alloca ptr, align 8
  %14 = alloca i32, align 4
  store ptr %0, ptr %6, align 8, !tbaa !64
  store ptr %1, ptr %7, align 8, !tbaa !24
  store i8 %2, ptr %8, align 1, !tbaa !22
  store ptr %3, ptr %9, align 8, !tbaa !50
  call void @llvm.lifetime.start.p0(i64 12, ptr %10) #12
  call void @llvm.memset.p0.i64(ptr align 4 %10, i8 0, i64 12, i1 false)
  call void @llvm.lifetime.start.p0(i64 76, ptr %11) #12
  call void @llvm.lifetime.start.p0(i64 31, ptr %12) #12
  call void @llvm.lifetime.start.p0(i64 8, ptr %13) #12
  %15 = load ptr, ptr %7, align 8, !tbaa !24
  %16 = getelementptr inbounds i8, ptr %15, i64 0
  %17 = load i8, ptr %16, align 1, !tbaa !22
  %18 = sext i8 %17 to i32
  %19 = icmp eq i32 %18, 35
  br i1 %19, label %36, label %20

20:                                               ; preds = %4
  %21 = load ptr, ptr %7, align 8, !tbaa !24
  %22 = call ptr @u_skipWhitespace(ptr noundef %21)
  store ptr %22, ptr %13, align 8, !tbaa !24
  %23 = load i8, ptr %22, align 1, !tbaa !22
  %24 = sext i8 %23 to i32
  %25 = icmp eq i32 %24, 0
  br i1 %25, label %36, label %26

26:                                               ; preds = %20
  %27 = load ptr, ptr %13, align 8, !tbaa !24
  %28 = load i8, ptr %27, align 1, !tbaa !22
  %29 = sext i8 %28 to i32
  %30 = icmp eq i32 %29, 10
  br i1 %30, label %36, label %31

31:                                               ; preds = %26
  %32 = load ptr, ptr %13, align 8, !tbaa !24
  %33 = load i8, ptr %32, align 1, !tbaa !22
  %34 = sext i8 %33 to i32
  %35 = icmp eq i32 %34, 13
  br i1 %35, label %36, label %37

36:                                               ; preds = %31, %26, %20, %4
  store i8 1, ptr %5, align 1
  store i32 1, ptr %14, align 4
  br label %54

37:                                               ; preds = %31
  %38 = getelementptr inbounds [19 x i32], ptr %11, i64 0, i64 0
  %39 = getelementptr inbounds [31 x i8], ptr %12, i64 0, i64 0
  %40 = load ptr, ptr %7, align 8, !tbaa !24
  %41 = call signext i8 @ucm_parseMappingLine(ptr noundef %10, ptr noundef %38, ptr noundef %39, ptr noundef %40)
  %42 = icmp ne i8 %41, 0
  br i1 %42, label %43, label %51

43:                                               ; preds = %37
  %44 = load ptr, ptr %6, align 8, !tbaa !64
  %45 = load i8, ptr %8, align 1, !tbaa !22
  %46 = load ptr, ptr %9, align 8, !tbaa !50
  %47 = getelementptr inbounds [19 x i32], ptr %11, i64 0, i64 0
  %48 = getelementptr inbounds [31 x i8], ptr %12, i64 0, i64 0
  %49 = call signext i8 @ucm_addMappingAuto(ptr noundef %44, i8 noundef signext %45, ptr noundef %46, ptr noundef %10, ptr noundef %47, ptr noundef %48)
  %50 = icmp ne i8 %49, 0
  br label %51

51:                                               ; preds = %43, %37
  %52 = phi i1 [ false, %37 ], [ %50, %43 ]
  %53 = zext i1 %52 to i8
  store i8 %53, ptr %5, align 1
  store i32 1, ptr %14, align 4
  br label %54

54:                                               ; preds = %51, %36
  call void @llvm.lifetime.end.p0(i64 8, ptr %13) #12
  call void @llvm.lifetime.end.p0(i64 31, ptr %12) #12
  call void @llvm.lifetime.end.p0(i64 76, ptr %11) #12
  call void @llvm.lifetime.end.p0(i64 12, ptr %10) #12
  %55 = load i8, ptr %5, align 1
  ret i8 %55
}