; Function Attrs: mustprogress uwtable
define signext range(i8 0, 2) i8 @ucm_addMappingFromLine(ptr noundef readonly captures(none) %0, ptr noundef %1, i8 noundef signext %2, ptr noundef %3) local_unnamed_addr #2 {
  %5 = alloca %struct.UCMapping, align 4
  %6 = alloca [19 x i32], align 16
  %7 = alloca [31 x i8], align 16
  call void @llvm.lifetime.start.p0(i64 12, ptr nonnull %5) #16
  call void @llvm.memset.p0.i64(ptr noundef nonnull align 4 dereferenceable(12) %5, i8 0, i64 12, i1 false)
  call void @llvm.lifetime.start.p0(i64 76, ptr nonnull %6) #16
  call void @llvm.lifetime.start.p0(i64 31, ptr nonnull %7) #16
  %8 = load i8, ptr %1, align 1, !tbaa !17
  %9 = icmp eq i8 %8, 35
  br i1 %9, label %17, label %10

10:                                               ; preds = %4
  %11 = tail call ptr @u_skipWhitespace(ptr noundef nonnull %1)
  %12 = load i8, ptr %11, align 1, !tbaa !17
  switch i8 %12, label %13 [
    i8 0, label %17
    i8 10, label %17
    i8 13, label %17
  ]

13:                                               ; preds = %10
  %14 = call signext i8 @ucm_parseMappingLine(ptr noundef nonnull %5, ptr noundef nonnull %6, ptr noundef nonnull %7, ptr noundef nonnull %1)
  %.not = icmp eq i8 %14, 0
  br i1 %.not, label %17, label %15

15:                                               ; preds = %13
  %16 = call signext i8 @ucm_addMappingAuto(ptr noundef %0, i8 noundef signext %2, ptr noundef %3, ptr noundef nonnull %5, ptr noundef nonnull %6, ptr noundef nonnull %7)
  br label %17

17:                                               ; preds = %13, %15, %4, %10, %10, %10
  %.0 = phi i8 [ 1, %10 ], [ 1, %10 ], [ 1, %10 ], [ 1, %4 ], [ 0, %13 ], [ %16, %15 ]
  call void @llvm.lifetime.end.p0(i64 31, ptr nonnull %7) #16
  call void @llvm.lifetime.end.p0(i64 76, ptr nonnull %6) #16
  call void @llvm.lifetime.end.p0(i64 12, ptr nonnull %5) #16
  ret i8 %.0
}